#include <math.h>
#include <stdio.h>
#include <stdlib.h>
#include <string.h>

int main()
{
	double a,b,c,d,e,s;
	scanf("%lf%lf%lf%lf%lf",&a,&b,&c,&d,&e);
	e=3.1415926*e/360;
	e=cos(e);
	s=(a+b+c+d)/2;
	s=(s-a)*(s-b)*(s-c)*(s-d)-a*b*c*d*e*e;
	if(s<0)
		printf("Invalid input");
	else{
		s=sqrt(s);
		printf("%.4lf",s);
	}
	return 0;
}